target datalayout = "e-m:e-p270:32:32-p271:32:32-p272:64:64-i64:64-i128:128-f80:128-n8:16:32:64-S128"
target triple = "x86_64-pc-linux-gnu"

%"struct.std::array.8" = type { [17 x ptr] }
%"class.llvm::StringRef" = type { ptr, i64 }
%"class.llvm::Bitset" = type { %"struct.std::array" }
%"struct.std::array" = type { [2 x i64] }
%"struct.llvm::AArch64::ArchInfo" = type { %"class.llvm::VersionTuple", i32, %"class.llvm::StringRef", %"class.llvm::StringRef", %"class.llvm::Bitset" }
%"class.llvm::VersionTuple" = type { i64, i64 }

; Function Attrs: mustprogress nounwind uwtable
define linkonce_odr hidden noundef ptr @_ZNSt14__array_traitsIPKN4llvm7AArch648ArchInfoELm17EE6_S_ptrERA17_KS4_(ptr noundef nonnull align 8 dereferenceable(136) %0) #0 comdat align 2 {
  %2 = alloca ptr, align 8
  store ptr %0, ptr %2, align 8
  %3 = load ptr, ptr %2, align 8
  %4 = getelementptr inbounds [17 x ptr], ptr %3, i64 0, i64 0
  ret ptr %4
}

; Function Attrs: mustprogress nounwind uwtable
define linkonce_odr hidden noundef i32 @_ZN4llvm9StringRef13compareMemoryEPKcS2_m(ptr noundef %0, ptr noundef %1, i64 noundef %2) #0 comdat align 2 {
  %4 = alloca i32, align 4
  %5 = alloca ptr, align 8
  %6 = alloca ptr, align 8
  %7 = alloca i64, align 8
  store ptr %0, ptr %5, align 8
  store ptr %1, ptr %6, align 8
  store i64 %2, ptr %7, align 8
  %8 = load i64, ptr %7, align 8
  %9 = icmp eq i64 %8, 0
  br i1 %9, label %10, label %11

10:                                               ; preds = %3
  store i32 0, ptr %4, align 4
  br label %16

11:                                               ; preds = %3
  %12 = load ptr, ptr %5, align 8
  %13 = load ptr, ptr %6, align 8
  %14 = load i64, ptr %7, align 8
  %15 = call i32 @memcmp(ptr noundef %12, ptr noundef %13, i64 noundef %14) #12
  store i32 %15, ptr %4, align 4
  br label %16

16:                                               ; preds = %11, %10
  %17 = load i32, ptr %4, align 4
  ret i32 %17
}

; Function Attrs: mustprogress nounwind uwtable
define linkonce_odr hidden noundef ptr @_ZNK4llvm9StringRef3endEv(ptr noundef nonnull align 8 dereferenceable(16) %0) #0 comdat align 2 {
  %2 = alloca ptr, align 8
  store ptr %0, ptr %2, align 8
  %3 = load ptr, ptr %2, align 8
  %4 = getelementptr inbounds nuw %"class.llvm::StringRef", ptr %3, i32 0, i32 0
  %5 = load ptr, ptr %4, align 8
  %6 = getelementptr inbounds nuw %"class.llvm::StringRef", ptr %3, i32 0, i32 1
  %7 = load i64, ptr %6, align 8
  %8 = getelementptr inbounds i8, ptr %5, i64 %7
  ret ptr %8
}

; Function Attrs: mustprogress nounwind uwtable
define linkonce_odr hidden noundef ptr @_ZNKSt5arrayIPKN4llvm7AArch648ArchInfoELm17EE4dataEv(ptr noundef nonnull align 8 dereferenceable(136) %0) #0 comdat align 2 {
  %2 = alloca ptr, align 8
  store ptr %0, ptr %2, align 8
  %3 = load ptr, ptr %2, align 8
  %4 = getelementptr inbounds nuw %"struct.std::array.8", ptr %3, i32 0, i32 0
  %5 = call noundef ptr @_ZNSt14__array_traitsIPKN4llvm7AArch648ArchInfoELm17EE6_S_ptrERA17_KS4_(ptr noundef nonnull align 8 dereferenceable(136) %4) #1
  ret ptr %5
}

; Function Attrs: mustprogress nounwind uwtable
define linkonce_odr hidden noundef signext i8 @_ZNK4llvm9StringRefixEm(ptr noundef nonnull align 8 dereferenceable(16) %0, i64 noundef %1) #0 comdat align 2 {
  %3 = alloca ptr, align 8
  %4 = alloca i64, align 8
  store ptr %0, ptr %3, align 8
  store i64 %1, ptr %4, align 8
  %5 = load ptr, ptr %3, align 8
  %6 = getelementptr inbounds nuw %"class.llvm::StringRef", ptr %5, i32 0, i32 0
  %7 = load ptr, ptr %6, align 8
  %8 = load i64, ptr %4, align 8
  %9 = getelementptr inbounds i8, ptr %7, i64 %8
  %10 = load i8, ptr %9, align 1
  ret i8 %10
}

; Function Attrs: mustprogress nounwind uwtable
define linkonce_odr hidden noundef i64 @_ZNK4llvm9StringRef4sizeEv(ptr noundef nonnull align 8 dereferenceable(16) %0) #0 comdat align 2 {
  %2 = alloca ptr, align 8
  store ptr %0, ptr %2, align 8
  %3 = load ptr, ptr %2, align 8
  %4 = getelementptr inbounds nuw %"class.llvm::StringRef", ptr %3, i32 0, i32 1
  %5 = load i64, ptr %4, align 8
  ret i64 %5
}

; Function Attrs: mustprogress nounwind uwtable
define linkonce_odr hidden noundef zeroext i1 @_ZNK4llvm9StringRef9ends_withES0_(ptr noundef nonnull align 8 dereferenceable(16) %0, ptr %1, i64 %2) #0 comdat align 2 {
  %4 = alloca %"class.llvm::StringRef", align 8
  %5 = alloca ptr, align 8
  %6 = getelementptr inbounds nuw { ptr, i64 }, ptr %4, i32 0, i32 0
  store ptr %1, ptr %6, align 8
  %7 = getelementptr inbounds nuw { ptr, i64 }, ptr %4, i32 0, i32 1
  store i64 %2, ptr %7, align 8
  store ptr %0, ptr %5, align 8
  %8 = load ptr, ptr %5, align 8
  %9 = getelementptr inbounds nuw %"class.llvm::StringRef", ptr %8, i32 0, i32 1
  %10 = load i64, ptr %9, align 8
  %11 = getelementptr inbounds nuw %"class.llvm::StringRef", ptr %4, i32 0, i32 1
  %12 = load i64, ptr %11, align 8
  %13 = icmp uge i64 %10, %12
  br i1 %13, label %14, label %26

14:                                               ; preds = %3
  %15 = call noundef ptr @_ZNK4llvm9StringRef3endEv(ptr noundef nonnull align 8 dereferenceable(16) %8)
  %16 = getelementptr inbounds nuw %"class.llvm::StringRef", ptr %4, i32 0, i32 1
  %17 = load i64, ptr %16, align 8
  %18 = sub i64 0, %17
  %19 = getelementptr inbounds i8, ptr %15, i64 %18
  %20 = getelementptr inbounds nuw %"class.llvm::StringRef", ptr %4, i32 0, i32 0
  %21 = load ptr, ptr %20, align 8
  %22 = getelementptr inbounds nuw %"class.llvm::StringRef", ptr %4, i32 0, i32 1
  %23 = load i64, ptr %22, align 8
  %24 = call noundef i32 @_ZN4llvm9StringRef13compareMemoryEPKcS2_m(ptr noundef %19, ptr noundef %21, i64 noundef %23)
  %25 = icmp eq i32 %24, 0
  br label %26

26:                                               ; preds = %14, %3
  %27 = phi i1 [ false, %3 ], [ %25, %14 ]
  ret i1 %27
}

; Function Attrs: mustprogress nounwind uwtable
define linkonce_odr hidden noundef ptr @_ZNKSt5arrayIPKN4llvm7AArch648ArchInfoELm17EE3endEv(ptr noundef nonnull align 8 dereferenceable(136) %0) #0 comdat align 2 {
  %2 = alloca ptr, align 8
  store ptr %0, ptr %2, align 8
  %3 = load ptr, ptr %2, align 8
  %4 = call noundef ptr @_ZNKSt5arrayIPKN4llvm7AArch648ArchInfoELm17EE4dataEv(ptr noundef nonnull align 8 dereferenceable(136) %3) #1
  %5 = getelementptr inbounds ptr, ptr %4, i64 17
  ret ptr %5
}

; Function Attrs: mustprogress nounwind uwtable
define linkonce_odr hidden noundef ptr @_ZNKSt5arrayIPKN4llvm7AArch648ArchInfoELm17EE5beginEv(ptr noundef nonnull align 8 dereferenceable(136) %0) #0 comdat align 2 {
  %2 = alloca ptr, align 8
  store ptr %0, ptr %2, align 8
  %3 = load ptr, ptr %2, align 8
  %4 = call noundef ptr @_ZNKSt5arrayIPKN4llvm7AArch648ArchInfoELm17EE4dataEv(ptr noundef nonnull align 8 dereferenceable(136) %3) #1
  ret ptr %4
}

; Function Attrs: mustprogress nounwind uwtable
define internal noundef i32 @_ZL16checkArchVersionN4llvm9StringRefE(ptr %0, i64 %1) #0 {
  %3 = alloca i32, align 4
  %4 = alloca %"class.llvm::StringRef", align 8
  %5 = getelementptr inbounds nuw { ptr, i64 }, ptr %4, i32 0, i32 0
  store ptr %0, ptr %5, align 8
  %6 = getelementptr inbounds nuw { ptr, i64 }, ptr %4, i32 0, i32 1
  store i64 %1, ptr %6, align 8
  %7 = call noundef i64 @_ZNK4llvm9StringRef4sizeEv(ptr noundef nonnull align 8 dereferenceable(16) %4)
  %8 = icmp uge i64 %7, 2
  br i1 %8, label %9, label %22

9:                                                ; preds = %2
  %10 = call noundef signext i8 @_ZNK4llvm9StringRefixEm(ptr noundef nonnull align 8 dereferenceable(16) %4, i64 noundef 0)
  %11 = sext i8 %10 to i32
  %12 = icmp eq i32 %11, 118
  br i1 %12, label %13, label %22

13:                                               ; preds = %9
  %14 = call noundef signext i8 @_ZNK4llvm9StringRefixEm(ptr noundef nonnull align 8 dereferenceable(16) %4, i64 noundef 1)
  %15 = sext i8 %14 to i32
  %16 = call i32 @isdigit(i32 noundef %15) #12
  %17 = icmp ne i32 %16, 0
  br i1 %17, label %18, label %22

18:                                               ; preds = %13
  %19 = call noundef signext i8 @_ZNK4llvm9StringRefixEm(ptr noundef nonnull align 8 dereferenceable(16) %4, i64 noundef 1)
  %20 = sext i8 %19 to i32
  %21 = sub nsw i32 %20, 48
  store i32 %21, ptr %3, align 4
  br label %23

22:                                               ; preds = %13, %9, %2
  store i32 0, ptr %3, align 4
  br label %23

23:                                               ; preds = %22, %18
  %24 = load i32, ptr %3, align 4
  ret i32 %24
}

; Function Attrs: mustprogress nounwind uwtable
define dso_local noundef ptr @_ZN4llvm7AArch649parseArchENS_9StringRefE(ptr %0, i64 %1) #0 {
  %3 = alloca ptr, align 8
  %4 = alloca %"class.llvm::StringRef", align 8
  %5 = alloca %"class.llvm::StringRef", align 8
  %6 = alloca %"class.llvm::StringRef", align 8
  %7 = alloca %"class.llvm::StringRef", align 8
  %8 = alloca %"class.llvm::StringRef", align 8
  %9 = alloca %"class.llvm::StringRef", align 8
  %10 = alloca ptr, align 8
  %11 = alloca ptr, align 8
  %12 = alloca ptr, align 8
  %13 = alloca ptr, align 8
  %14 = alloca %"class.llvm::StringRef", align 8
  %15 = getelementptr inbounds nuw { ptr, i64 }, ptr %4, i32 0, i32 0
  store ptr %0, ptr %15, align 8
  %16 = getelementptr inbounds nuw { ptr, i64 }, ptr %4, i32 0, i32 1
  store i64 %1, ptr %16, align 8
  call void @llvm.memcpy.p0.p0.i64(ptr align 8 %6, ptr align 8 %4, i64 16, i1 false)
  %17 = getelementptr inbounds nuw { ptr, i64 }, ptr %6, i32 0, i32 0
  %18 = load ptr, ptr %17, align 8
  %19 = getelementptr inbounds nuw { ptr, i64 }, ptr %6, i32 0, i32 1
  %20 = load i64, ptr %19, align 8
  %21 = call { ptr, i64 } @_ZN4llvm3ARM20getCanonicalArchNameENS_9StringRefE(ptr %18, i64 %20)
  %22 = getelementptr inbounds nuw { ptr, i64 }, ptr %5, i32 0, i32 0
  %23 = extractvalue { ptr, i64 } %21, 0
  store ptr %23, ptr %22, align 8
  %24 = getelementptr inbounds nuw { ptr, i64 }, ptr %5, i32 0, i32 1
  %25 = extractvalue { ptr, i64 } %21, 1
  store i64 %25, ptr %24, align 8
  call void @llvm.memcpy.p0.p0.i64(ptr align 8 %4, ptr align 8 %5, i64 16, i1 false)
  call void @llvm.memcpy.p0.p0.i64(ptr align 8 %7, ptr align 8 %4, i64 16, i1 false)
  %26 = getelementptr inbounds nuw { ptr, i64 }, ptr %7, i32 0, i32 0
  %27 = load ptr, ptr %26, align 8
  %28 = getelementptr inbounds nuw { ptr, i64 }, ptr %7, i32 0, i32 1
  %29 = load i64, ptr %28, align 8
  %30 = call noundef i32 @_ZL16checkArchVersionN4llvm9StringRefE(ptr %27, i64 %29)
  %31 = icmp ult i32 %30, 8
  br i1 %31, label %32, label %33

32:                                               ; preds = %2
  store ptr null, ptr %3, align 8
  br label %66

33:                                               ; preds = %2
  call void @llvm.memcpy.p0.p0.i64(ptr align 8 %9, ptr align 8 %4, i64 16, i1 false)
  %34 = getelementptr inbounds nuw { ptr, i64 }, ptr %9, i32 0, i32 0
  %35 = load ptr, ptr %34, align 8
  %36 = getelementptr inbounds nuw { ptr, i64 }, ptr %9, i32 0, i32 1
  %37 = load i64, ptr %36, align 8
  %38 = call { ptr, i64 } @_ZN4llvm3ARM14getArchSynonymENS_9StringRefE(ptr %35, i64 %37)
  %39 = getelementptr inbounds nuw { ptr, i64 }, ptr %8, i32 0, i32 0
  %40 = extractvalue { ptr, i64 } %38, 0
  store ptr %40, ptr %39, align 8
  %41 = getelementptr inbounds nuw { ptr, i64 }, ptr %8, i32 0, i32 1
  %42 = extractvalue { ptr, i64 } %38, 1
  store i64 %42, ptr %41, align 8
  store ptr @_ZN4llvm7AArch64L9ArchInfosE, ptr %10, align 8
  %43 = call noundef ptr @_ZNKSt5arrayIPKN4llvm7AArch648ArchInfoELm17EE5beginEv(ptr noundef nonnull align 8 dereferenceable(136) @_ZN4llvm7AArch64L9ArchInfosE) #1
  store ptr %43, ptr %11, align 8
  %44 = call noundef ptr @_ZNKSt5arrayIPKN4llvm7AArch648ArchInfoELm17EE3endEv(ptr noundef nonnull align 8 dereferenceable(136) @_ZN4llvm7AArch64L9ArchInfosE) #1
  store ptr %44, ptr %12, align 8
  br label %45

45:                                               ; preds = %62, %33
  %46 = load ptr, ptr %11, align 8
  %47 = load ptr, ptr %12, align 8
  %48 = icmp ne ptr %46, %47
  br i1 %48, label %49, label %65

49:                                               ; preds = %45
  %50 = load ptr, ptr %11, align 8
  %51 = load ptr, ptr %50, align 8
  store ptr %51, ptr %13, align 8
  %52 = load ptr, ptr %13, align 8
  %53 = getelementptr inbounds nuw %"struct.llvm::AArch64::ArchInfo", ptr %52, i32 0, i32 2
  call void @llvm.memcpy.p0.p0.i64(ptr align 8 %14, ptr align 8 %8, i64 16, i1 false)
  %54 = getelementptr inbounds nuw { ptr, i64 }, ptr %14, i32 0, i32 0
  %55 = load ptr, ptr %54, align 8
  %56 = getelementptr inbounds nuw { ptr, i64 }, ptr %14, i32 0, i32 1
  %57 = load i64, ptr %56, align 8
  %58 = call noundef zeroext i1 @_ZNK4llvm9StringRef9ends_withES0_(ptr noundef nonnull align 8 dereferenceable(16) %53, ptr %55, i64 %57)
  br i1 %58, label %59, label %61

59:                                               ; preds = %49
  %60 = load ptr, ptr %13, align 8
  store ptr %60, ptr %3, align 8
  br label %66

61:                                               ; preds = %49
  br label %62

62:                                               ; preds = %61
  %63 = load ptr, ptr %11, align 8
  %64 = getelementptr inbounds ptr, ptr %63, i32 1
  store ptr %64, ptr %11, align 8
  br label %45

65:                                               ; preds = %45
  store ptr null, ptr %3, align 8
  br label %66

66:                                               ; preds = %65, %59, %32
  %67 = load ptr, ptr %3, align 8
  ret ptr %67
}