; Function Attrs: mustprogress nounwind uwtable
define dso_local noundef ptr @_ZN4llvm7AArch649parseArchENS_9StringRefE(ptr %0, i64 %1) local_unnamed_addr #0 {
  %3 = tail call { ptr, i64 } @_ZN4llvm3ARM20getCanonicalArchNameENS_9StringRefE(ptr %0, i64 %1) #26
  %4 = extractvalue { ptr, i64 } %3, 0
  %5 = extractvalue { ptr, i64 } %3, 1
  %6 = icmp ugt i64 %5, 1
  br i1 %6, label %7, label %_ZL16checkArchVersionN4llvm9StringRefE.exit.thread

7:                                                ; preds = %2
  %8 = load i8, ptr %4, align 1
  %9 = icmp eq i8 %8, 118
  br i1 %9, label %10, label %_ZL16checkArchVersionN4llvm9StringRefE.exit.thread

10:                                               ; preds = %7
  %11 = getelementptr inbounds nuw i8, ptr %4, i64 1
  %12 = load i8, ptr %11, align 1
  %13 = sext i8 %12 to i32
  %14 = add nsw i32 %13, -58
  %or.cond = icmp ult i32 %14, -2
  br i1 %or.cond, label %_ZL16checkArchVersionN4llvm9StringRefE.exit.thread, label %15

15:                                               ; preds = %10
  %16 = tail call { ptr, i64 } @_ZN4llvm3ARM14getArchSynonymENS_9StringRefE(ptr nonnull %4, i64 %5) #26
  %.fr = freeze { ptr, i64 } %16
  %17 = extractvalue { ptr, i64 } %.fr, 0
  %18 = extractvalue { ptr, i64 } %.fr, 1
  %19 = icmp eq i64 %18, 0
  %20 = sub i64 0, %18
  br i1 %19, label %_ZL16checkArchVersionN4llvm9StringRefE.exit.thread, label %.split

.split:                                           ; preds = %15, %_ZNK4llvm9StringRef9ends_withES0_.exit.thread22
  %.020.idx23 = phi i64 [ %.020.add, %_ZNK4llvm9StringRef9ends_withES0_.exit.thread22 ], [ 0, %15 ]
  %.020.ptr = getelementptr inbounds nuw i8, ptr @_ZN4llvm7AArch64L9ArchInfosE, i64 %.020.idx23
  %21 = load ptr, ptr %.020.ptr, align 8
  %22 = getelementptr inbounds nuw i8, ptr %21, i64 32
  %23 = load i64, ptr %22, align 8
  %.not.i = icmp ult i64 %23, %18
  br i1 %.not.i, label %_ZNK4llvm9StringRef9ends_withES0_.exit.thread22, label %_ZNK4llvm9StringRef9ends_withES0_.exit

_ZNK4llvm9StringRef9ends_withES0_.exit:           ; preds = %.split
  %24 = getelementptr inbounds nuw i8, ptr %21, i64 24
  %25 = load ptr, ptr %24, align 8
  %26 = getelementptr inbounds i8, ptr %25, i64 %23
  %27 = getelementptr inbounds i8, ptr %26, i64 %20
  %bcmp.i = tail call i32 @bcmp(ptr nonnull %27, ptr %17, i64 %18)
  %28 = icmp eq i32 %bcmp.i, 0
  br i1 %28, label %_ZL16checkArchVersionN4llvm9StringRefE.exit.thread, label %_ZNK4llvm9StringRef9ends_withES0_.exit.thread22

_ZNK4llvm9StringRef9ends_withES0_.exit.thread22:  ; preds = %.split, %_ZNK4llvm9StringRef9ends_withES0_.exit
  %.020.add = add nuw nsw i64 %.020.idx23, 8
  %.not = icmp eq i64 %.020.add, 136
  br i1 %.not, label %_ZL16checkArchVersionN4llvm9StringRefE.exit.thread, label %.split

_ZL16checkArchVersionN4llvm9StringRefE.exit.thread: ; preds = %_ZNK4llvm9StringRef9ends_withES0_.exit, %_ZNK4llvm9StringRef9ends_withES0_.exit.thread22, %15, %10, %2, %7
  %.0 = phi ptr [ null, %7 ], [ null, %2 ], [ null, %10 ], [ @_ZN4llvm7AArch646ARMV8AE, %15 ], [ null, %_ZNK4llvm9StringRef9ends_withES0_.exit.thread22 ], [ %21, %_ZNK4llvm9StringRef9ends_withES0_.exit ]
  ret ptr %.0
}